; Function Attrs: mustprogress nounwind uwtable
define noundef i64 @_ZN32pxrInternal_v0_24__pxrReserved__14TfStringToLongERKNSt7__cxx1112basic_stringIcSt11char_traitsIcESaIcEEEPb(ptr noundef nonnull align 8 dereferenceable(32) %0, ptr noundef writeonly %1) local_unnamed_addr #6 {
  %3 = tail call noundef ptr @_ZNKSt7__cxx1112basic_stringIcSt11char_traitsIcESaIcEE5c_strEv(ptr noundef nonnull align 8 dereferenceable(32) %0) #22
  %4 = load i8, ptr %3, align 1
  %5 = icmp eq i8 %4, 45
  br i1 %5, label %6, label %22

6:                                                ; preds = %2
  %7 = getelementptr inbounds i8, ptr %3, i64 1
  %8 = load i8, ptr %7, align 1
  %9 = add i8 %8, -48
  %or.cond15.i.i = icmp ult i8 %9, 10
  br i1 %or.cond15.i.i, label %.lr.ph.i.i, label %_ZN32pxrInternal_v0_24__pxrReserved__14TfStringToLongEPKcPb.exit

.lr.ph.i.i:                                       ; preds = %6, %15
  %10 = phi i8 [ %20, %15 ], [ %8, %6 ]
  %.01017.i.i = phi i64 [ %19, %15 ], [ 0, %6 ]
  %.01116.i.i = phi ptr [ %17, %15 ], [ %7, %6 ]
  %narrow.i.i = add nsw i8 %10, -48
  %11 = icmp ugt i8 %narrow.i.i, 8
  %12 = select i1 %11, i64 -922337203685477579, i64 -922337203685477580
  %13 = icmp slt i64 %.01017.i.i, %12
  br i1 %13, label %14, label %15

14:                                               ; preds = %.lr.ph.i.i
  %.not.i.i = icmp eq ptr %1, null
  br i1 %.not.i.i, label %_ZN32pxrInternal_v0_24__pxrReserved__14TfStringToLongEPKcPb.exit, label %_ZN32pxrInternal_v0_24__pxrReserved__L17_StringToNegativeIlEENSt9enable_ifIXsr3std9is_signedIT_EE5valueES2_E4typeEPKcPb.exit.sink.split.i

15:                                               ; preds = %.lr.ph.i.i
  %16 = zext nneg i8 %narrow.i.i to i64
  %17 = getelementptr inbounds i8, ptr %.01116.i.i, i64 1
  %18 = mul nsw i64 %.01017.i.i, 10
  %19 = sub nsw i64 %18, %16
  %20 = load i8, ptr %17, align 1
  %21 = add i8 %20, -48
  %or.cond.i.i = icmp ult i8 %21, 10
  br i1 %or.cond.i.i, label %.lr.ph.i.i, label %_ZN32pxrInternal_v0_24__pxrReserved__14TfStringToLongEPKcPb.exit, !llvm.loop !4

22:                                               ; preds = %2
  %23 = add i8 %4, -48
  %or.cond15.i6.i = icmp ult i8 %23, 10
  br i1 %or.cond15.i6.i, label %.lr.ph.i8.i, label %_ZN32pxrInternal_v0_24__pxrReserved__14TfStringToLongEPKcPb.exit

.lr.ph.i8.i:                                      ; preds = %22, %29
  %24 = phi i8 [ %34, %29 ], [ %4, %22 ]
  %.01017.i9.i = phi i64 [ %33, %29 ], [ 0, %22 ]
  %.01116.i10.i = phi ptr [ %31, %29 ], [ %3, %22 ]
  %narrow.i11.i = add nsw i8 %24, -48
  %25 = icmp ugt i8 %narrow.i11.i, 7
  %26 = select i1 %25, i64 922337203685477579, i64 922337203685477580
  %27 = icmp sgt i64 %.01017.i9.i, %26
  br i1 %27, label %28, label %29

28:                                               ; preds = %.lr.ph.i8.i
  %.not.i13.i = icmp eq ptr %1, null
  br i1 %.not.i13.i, label %_ZN32pxrInternal_v0_24__pxrReserved__14TfStringToLongEPKcPb.exit, label %_ZN32pxrInternal_v0_24__pxrReserved__L17_StringToNegativeIlEENSt9enable_ifIXsr3std9is_signedIT_EE5valueES2_E4typeEPKcPb.exit.sink.split.i

29:                                               ; preds = %.lr.ph.i8.i
  %30 = zext nneg i8 %narrow.i11.i to i64
  %31 = getelementptr inbounds i8, ptr %.01116.i10.i, i64 1
  %32 = mul nsw i64 %.01017.i9.i, 10
  %33 = add nsw i64 %32, %30
  %34 = load i8, ptr %31, align 1
  %35 = add i8 %34, -48
  %or.cond.i12.i = icmp ult i8 %35, 10
  br i1 %or.cond.i12.i, label %.lr.ph.i8.i, label %_ZN32pxrInternal_v0_24__pxrReserved__14TfStringToLongEPKcPb.exit, !llvm.loop !6

_ZN32pxrInternal_v0_24__pxrReserved__L17_StringToNegativeIlEENSt9enable_ifIXsr3std9is_signedIT_EE5valueES2_E4typeEPKcPb.exit.sink.split.i: ; preds = %28, %14
  %.0.ph.i = phi i64 [ -9223372036854775808, %14 ], [ 9223372036854775807, %28 ]
  store i8 1, ptr %1, align 1
  br label %_ZN32pxrInternal_v0_24__pxrReserved__14TfStringToLongEPKcPb.exit

_ZN32pxrInternal_v0_24__pxrReserved__14TfStringToLongEPKcPb.exit: ; preds = %29, %15, %6, %14, %22, %28, %_ZN32pxrInternal_v0_24__pxrReserved__L17_StringToNegativeIlEENSt9enable_ifIXsr3std9is_signedIT_EE5valueES2_E4typeEPKcPb.exit.sink.split.i
  %.0.i = phi i64 [ -9223372036854775808, %14 ], [ 0, %6 ], [ 9223372036854775807, %28 ], [ 0, %22 ], [ %.0.ph.i, %_ZN32pxrInternal_v0_24__pxrReserved__L17_StringToNegativeIlEENSt9enable_ifIXsr3std9is_signedIT_EE5valueES2_E4typeEPKcPb.exit.sink.split.i ], [ %19, %15 ], [ %33, %29 ]
  ret i64 %.0.i
}